target datalayout = "e-m:e-p270:32:32-p271:32:32-p272:64:64-i64:64-i128:128-f80:128-n8:16:32:64-S128"
target triple = "x86_64-pc-linux-gnu"

%struct.strvec = type { ptr, i64, i64 }
%struct.strbuf = type { i64, i64, ptr }
%struct.commit = type { %struct.object, i64, ptr, ptr, i32 }
%struct.object = type { i32, %struct.object_id }
%struct.object_id = type { [32 x i8], i32 }
%struct.oidset = type { %struct.kh_oid_set }
%struct.kh_oid_set = type { i32, i32, i32, i32, ptr, ptr, ptr }
%struct.commit_list = type { ptr, ptr }
%struct.rev_info = type { ptr, %struct.object_array, ptr, %struct.object_array, %struct.rev_cmdline_info, %struct.list_objects_filter_options, %struct.ref_exclusions, ptr, ptr, ptr, %struct.pathspec, i32, i32, i32, i32, i64, i32, i32, %struct.date_mode, i32, i32, i32, i32, ptr, i32, i32, ptr, ptr, i32, ptr, ptr, %struct.ident_split, ptr, i32, ptr, ptr, ptr, i32, i32, i32, ptr, %struct.grep_opt, ptr, i32, i32, i64, i64, i64, i32, i32, ptr, ptr, ptr, %struct.diff_options, %struct.diff_options, ptr, %struct.decoration, %struct.decoration, %struct.decoration, %struct.display_notes_opt, ptr, ptr, ptr, ptr, ptr, i32, ptr, i32, i32, i32, %struct.decoration, ptr, ptr, ptr, ptr, ptr, ptr, ptr, i32, ptr, i32, ptr, %struct.oidset }
%struct.object_array = type { i32, i32, ptr }
%struct.rev_cmdline_info = type { i32, i32, ptr }
%struct.list_objects_filter_options = type { %struct.strbuf, i32, i8, ptr, i64, i64, i32, i64, i64, ptr }
%struct.ref_exclusions = type { %struct.string_list, %struct.strvec, i8 }
%struct.string_list = type { ptr, i64, i64, i8, ptr }
%struct.pathspec = type { i32, i8, i32, i32, ptr }
%struct.date_mode = type { i32, i32, ptr }
%struct.ident_split = type { ptr, ptr, ptr, ptr, ptr, ptr, ptr, ptr }
%struct.grep_opt = type { ptr, ptr, ptr, ptr, ptr, ptr, i32, i32, i32, i32, i32, i32, i32, i32, i32, i32, i32, i32, i32, i32, i32, i32, i32, i32, i32, i32, i32, i32, i32, i32, i32, i32, [9 x [75 x i8]], i32, i32, i32, i32, i32, i32, i32, ptr, ptr, ptr }
%struct.diff_options = type { ptr, ptr, i32, i32, ptr, i32, ptr, i64, i64, ptr, ptr, ptr, ptr, %struct.diff_flags, i32, i32, i32, i32, i32, i32, i32, i32, i32, i32, i32, i32, i32, i32, i32, i32, i32, i32, i32, i32, i32, i32, ptr, i32, ptr, i32, i32, ptr, i64, i64, i32, i32, i32, i32, ptr, i32, i32, ptr, i32, i32, ptr, ptr, i32, [3 x i8], %struct.pathspec, ptr, ptr, ptr, ptr, ptr, ptr, ptr, ptr, i32, ptr, i32, i32, ptr, ptr, i32 }
%struct.diff_flags = type { i32, i32, i32, i32, i32, i32, i32, i32, i32, i32, i32, i32, i32, i32, i32, i32, i32, i32, i32, i32, i32, i32, i32, i32, i32, i32, i32, i32, i32, i32, i32, i32, i32, i32, i32 }
%struct.display_notes_opt = type { i32, %struct.string_list }
%struct.decoration = type { ptr, i32, i32, ptr }
%struct.treesame_state = type { i32, [0 x i8] }

@.str.230 = private unnamed_addr constant [19 x i8] c"update_treesame %s\00", align 1

; Function Attrs: inlinehint nounwind uwtable
define internal i32 @relevant_commit(ptr noundef %0) #4 {
  %2 = alloca ptr, align 8
  store ptr %0, ptr %2, align 8, !tbaa !24
  %3 = load ptr, ptr %2, align 8, !tbaa !24
  %4 = getelementptr inbounds nuw %struct.commit, ptr %3, i32 0, i32 0
  %5 = load i32, ptr %4, align 8
  %6 = lshr i32 %5, 4
  %7 = and i32 %6, 1026
  %8 = icmp ne i32 %7, 2
  %9 = zext i1 %8 to i32
  ret i32 %9
}

; Function Attrs: nounwind uwtable
define internal i32 @update_treesame(ptr noundef %0, ptr noundef %1) #0 {
  %3 = alloca ptr, align 8
  %4 = alloca ptr, align 8
  %5 = alloca i32, align 4
  %6 = alloca ptr, align 8
  %7 = alloca ptr, align 8
  %8 = alloca i32, align 4
  %9 = alloca i32, align 4
  %10 = alloca i32, align 4
  store ptr %0, ptr %3, align 8, !tbaa !88
  store ptr %1, ptr %4, align 8, !tbaa !24
  %11 = load ptr, ptr %4, align 8, !tbaa !24
  %12 = getelementptr inbounds nuw %struct.commit, ptr %11, i32 0, i32 2
  %13 = load ptr, ptr %12, align 8, !tbaa !90
  %14 = icmp ne ptr %13, null
  br i1 %14, label %15, label %113

15:                                               ; preds = %2
  %16 = load ptr, ptr %4, align 8, !tbaa !24
  %17 = getelementptr inbounds nuw %struct.commit, ptr %16, i32 0, i32 2
  %18 = load ptr, ptr %17, align 8, !tbaa !90
  %19 = getelementptr inbounds nuw %struct.commit_list, ptr %18, i32 0, i32 1
  %20 = load ptr, ptr %19, align 8, !tbaa !94
  %21 = icmp ne ptr %20, null
  br i1 %21, label %22, label %113

22:                                               ; preds = %15
  call void @llvm.lifetime.start.p0(i64 4, ptr %5) #12
  call void @llvm.lifetime.start.p0(i64 8, ptr %6) #12
  call void @llvm.lifetime.start.p0(i64 8, ptr %7) #12
  call void @llvm.lifetime.start.p0(i64 4, ptr %8) #12
  call void @llvm.lifetime.start.p0(i64 4, ptr %9) #12
  call void @llvm.lifetime.start.p0(i64 4, ptr %10) #12
  %23 = load ptr, ptr %3, align 8, !tbaa !88
  %24 = getelementptr inbounds nuw %struct.rev_info, ptr %23, i32 0, i32 58
  %25 = load ptr, ptr %4, align 8, !tbaa !24
  %26 = getelementptr inbounds nuw %struct.commit, ptr %25, i32 0, i32 0
  %27 = call ptr @lookup_decoration(ptr noundef %24, ptr noundef %26)
  store ptr %27, ptr %6, align 8, !tbaa !380
  %28 = load ptr, ptr %6, align 8, !tbaa !380
  %29 = icmp ne ptr %28, null
  br i1 %29, label %35, label %30

30:                                               ; preds = %22
  %31 = load ptr, ptr %4, align 8, !tbaa !24
  %32 = getelementptr inbounds nuw %struct.commit, ptr %31, i32 0, i32 0
  %33 = getelementptr inbounds nuw %struct.object, ptr %32, i32 0, i32 1
  %34 = call ptr @oid_to_hex(ptr noundef %33)
  call void (ptr, ...) @die(ptr noundef @.str.230, ptr noundef %34) #13
  unreachable

35:                                               ; preds = %22
  store i32 0, ptr %8, align 4, !tbaa !9
  store i32 0, ptr %10, align 4, !tbaa !9
  store i32 0, ptr %9, align 4, !tbaa !9
  %36 = load ptr, ptr %4, align 8, !tbaa !24
  %37 = getelementptr inbounds nuw %struct.commit, ptr %36, i32 0, i32 2
  %38 = load ptr, ptr %37, align 8, !tbaa !90
  store ptr %38, ptr %7, align 8, !tbaa !91
  store i32 0, ptr %5, align 4, !tbaa !9
  br label %39

39:                                               ; preds = %75, %35
  %40 = load ptr, ptr %7, align 8, !tbaa !91
  %41 = icmp ne ptr %40, null
  br i1 %41, label %42, label %81

42:                                               ; preds = %39
  %43 = load ptr, ptr %7, align 8, !tbaa !91
  %44 = getelementptr inbounds nuw %struct.commit_list, ptr %43, i32 0, i32 0
  %45 = load ptr, ptr %44, align 8, !tbaa !92
  %46 = call i32 @relevant_commit(ptr noundef %45)
  %47 = icmp ne i32 %46, 0
  br i1 %47, label %48, label %62

48:                                               ; preds = %42
  %49 = load ptr, ptr %6, align 8, !tbaa !380
  %50 = getelementptr inbounds nuw %struct.treesame_state, ptr %49, i32 0, i32 1
  %51 = load i32, ptr %5, align 4, !tbaa !9
  %52 = zext i32 %51 to i64
  %53 = getelementptr inbounds nuw [0 x i8], ptr %50, i64 0, i64 %52
  %54 = load i8, ptr %53, align 1, !tbaa !41
  %55 = icmp ne i8 %54, 0
  %56 = xor i1 %55, true
  %57 = zext i1 %56 to i32
  %58 = load i32, ptr %9, align 4, !tbaa !9
  %59 = or i32 %58, %57
  store i32 %59, ptr %9, align 4, !tbaa !9
  %60 = load i32, ptr %8, align 4, !tbaa !9
  %61 = add i32 %60, 1
  store i32 %61, ptr %8, align 4, !tbaa !9
  br label %74

62:                                               ; preds = %42
  %63 = load ptr, ptr %6, align 8, !tbaa !380
  %64 = getelementptr inbounds nuw %struct.treesame_state, ptr %63, i32 0, i32 1
  %65 = load i32, ptr %5, align 4, !tbaa !9
  %66 = zext i32 %65 to i64
  %67 = getelementptr inbounds nuw [0 x i8], ptr %64, i64 0, i64 %66
  %68 = load i8, ptr %67, align 1, !tbaa !41
  %69 = icmp ne i8 %68, 0
  %70 = xor i1 %69, true
  %71 = zext i1 %70 to i32
  %72 = load i32, ptr %10, align 4, !tbaa !9
  %73 = or i32 %72, %71
  store i32 %73, ptr %10, align 4, !tbaa !9
  br label %74

74:                                               ; preds = %62, %48
  br label %75

75:                                               ; preds = %74
  %76 = load i32, ptr %5, align 4, !tbaa !9
  %77 = add i32 %76, 1
  store i32 %77, ptr %5, align 4, !tbaa !9
  %78 = load ptr, ptr %7, align 8, !tbaa !91
  %79 = getelementptr inbounds nuw %struct.commit_list, ptr %78, i32 0, i32 1
  %80 = load ptr, ptr %79, align 8, !tbaa !94
  store ptr %80, ptr %7, align 8, !tbaa !91
  br label %39, !llvm.loop !480

81:                                               ; preds = %39
  %82 = load i32, ptr %8, align 4, !tbaa !9
  %83 = icmp ne i32 %82, 0
  br i1 %83, label %84, label %87

84:                                               ; preds = %81
  %85 = load i32, ptr %9, align 4, !tbaa !9
  %86 = icmp ne i32 %85, 0
  br i1 %86, label %90, label %101

87:                                               ; preds = %81
  %88 = load i32, ptr %10, align 4, !tbaa !9
  %89 = icmp ne i32 %88, 0
  br i1 %89, label %90, label %101

90:                                               ; preds = %87, %84
  %91 = load ptr, ptr %4, align 8, !tbaa !24
  %92 = getelementptr inbounds nuw %struct.commit, ptr %91, i32 0, i32 0
  %93 = load i32, ptr %92, align 8
  %94 = lshr i32 %93, 4
  %95 = and i32 %94, -5
  %96 = load i32, ptr %92, align 8
  %97 = and i32 %95, 268435455
  %98 = shl i32 %97, 4
  %99 = and i32 %96, 15
  %100 = or i32 %99, %98
  store i32 %100, ptr %92, align 8
  br label %112

101:                                              ; preds = %87, %84
  %102 = load ptr, ptr %4, align 8, !tbaa !24
  %103 = getelementptr inbounds nuw %struct.commit, ptr %102, i32 0, i32 0
  %104 = load i32, ptr %103, align 8
  %105 = lshr i32 %104, 4
  %106 = or i32 %105, 4
  %107 = load i32, ptr %103, align 8
  %108 = and i32 %106, 268435455
  %109 = shl i32 %108, 4
  %110 = and i32 %107, 15
  %111 = or i32 %110, %109
  store i32 %111, ptr %103, align 8
  br label %112

112:                                              ; preds = %101, %90
  call void @llvm.lifetime.end.p0(i64 4, ptr %10) #12
  call void @llvm.lifetime.end.p0(i64 4, ptr %9) #12
  call void @llvm.lifetime.end.p0(i64 4, ptr %8) #12
  call void @llvm.lifetime.end.p0(i64 8, ptr %7) #12
  call void @llvm.lifetime.end.p0(i64 8, ptr %6) #12
  call void @llvm.lifetime.end.p0(i64 4, ptr %5) #12
  br label %113

113:                                              ; preds = %112, %15, %2
  %114 = load ptr, ptr %4, align 8, !tbaa !24
  %115 = getelementptr inbounds nuw %struct.commit, ptr %114, i32 0, i32 0
  %116 = load i32, ptr %115, align 8
  %117 = lshr i32 %116, 4
  %118 = and i32 %117, 4
  ret i32 %118
}