; Function Attrs: nounwind uwtable
define internal fastcc void @update_treesame(ptr noundef %0, ptr noundef %1) unnamed_addr #2 {
  %3 = getelementptr inbounds nuw i8, ptr %1, i64 48
  %4 = load ptr, ptr %3, align 8, !tbaa !363
  %.not = icmp eq ptr %4, null
  br i1 %.not, label %38, label %5

5:                                                ; preds = %2
  %6 = getelementptr inbounds nuw i8, ptr %4, i64 8
  %7 = load ptr, ptr %6, align 8, !tbaa !251
  %.not31 = icmp eq ptr %7, null
  br i1 %.not31, label %38, label %8

8:                                                ; preds = %5
  %9 = getelementptr inbounds nuw i8, ptr %0, i64 2712
  %10 = tail call ptr @lookup_decoration(ptr noundef nonnull %9, ptr noundef nonnull %1) #26
  %.not32 = icmp eq ptr %10, null
  br i1 %.not32, label %12, label %.preheader

.preheader:                                       ; preds = %8
  %.02741 = load ptr, ptr %3, align 8, !tbaa !58
  %.not3342 = icmp eq ptr %.02741, null
  br i1 %.not3342, label %.thread, label %.lr.ph

.lr.ph:                                           ; preds = %.preheader
  %11 = getelementptr inbounds nuw i8, ptr %10, i64 4
  br label %15

12:                                               ; preds = %8
  %13 = getelementptr inbounds nuw i8, ptr %1, i64 4
  %14 = tail call ptr @oid_to_hex(ptr noundef nonnull %13) #26
  tail call void (ptr, ...) @die(ptr noundef nonnull @.str.230, ptr noundef %14) #28
  unreachable

15:                                               ; preds = %.lr.ph, %15
  %.02747 = phi ptr [ %.02741, %.lr.ph ], [ %.027, %15 ]
  %.046 = phi i32 [ 0, %.lr.ph ], [ %.1, %15 ]
  %.02345 = phi i32 [ 0, %.lr.ph ], [ %.124, %15 ]
  %.02544 = phi i32 [ 0, %.lr.ph ], [ %.126, %15 ]
  %.02843 = phi i32 [ 0, %.lr.ph ], [ %25, %15 ]
  %16 = load ptr, ptr %.02747, align 8, !tbaa !59
  %.val = load i32, ptr %16, align 8
  %17 = and i32 %.val, 16416
  %.not40 = icmp ne i32 %17, 32
  %18 = zext i32 %.02843 to i64
  %19 = getelementptr inbounds nuw [0 x i8], ptr %11, i64 0, i64 %18
  %20 = load i8, ptr %19, align 1, !tbaa !28
  %.not38 = icmp eq i8 %20, 0
  %21 = zext i1 %.not38 to i32
  %22 = zext i1 %.not40 to i32
  %.126 = add i32 %.02544, %22
  %23 = select i1 %.not40, i32 %21, i32 0
  %.124 = or i32 %.02345, %23
  %24 = select i1 %.not40, i32 0, i32 %21
  %.1 = or i32 %.046, %24
  %25 = add i32 %.02843, 1
  %26 = getelementptr inbounds nuw i8, ptr %.02747, i64 8
  %.027 = load ptr, ptr %26, align 8, !tbaa !58
  %.not33 = icmp eq ptr %.027, null
  br i1 %.not33, label %._crit_edge, label %15, !llvm.loop !421

._crit_edge:                                      ; preds = %15
  %27 = icmp eq i32 %.126, 0
  br i1 %27, label %30, label %28

28:                                               ; preds = %._crit_edge
  %29 = icmp eq i32 %.124, 0
  br i1 %29, label %.thread, label %32

30:                                               ; preds = %._crit_edge
  %31 = icmp eq i32 %.1, 0
  br i1 %31, label %.thread, label %32

32:                                               ; preds = %30, %28
  %33 = load i32, ptr %1, align 8
  %34 = and i32 %33, -65
  br label %37

.thread:                                          ; preds = %.preheader, %30, %28
  %35 = load i32, ptr %1, align 8
  %36 = or i32 %35, 64
  br label %37

37:                                               ; preds = %.thread, %32
  %storemerge = phi i32 [ %36, %.thread ], [ %34, %32 ]
  store i32 %storemerge, ptr %1, align 8
  br label %38

38:                                               ; preds = %37, %5, %2
  ret void
}